target datalayout = "e-m:e-p270:32:32-p271:32:32-p272:64:64-i64:64-i128:128-f80:128-n8:16:32:64-S128"
target triple = "x86_64-pc-linux-gnu"

@.str = private unnamed_addr constant [3 x i8] c"rb\00", align 1
@.str.4 = private unnamed_addr constant [3 x i8] c"wb\00", align 1
@.str.9 = private unnamed_addr constant [13 x i8] c"_binary.data\00", align 1
@.str.10 = private unnamed_addr constant [51 x i8] c"Input file \22%s\22 was copied into output file \22%s\22.\0A\00", align 1

; Function Attrs: inlinehint nounwind uwtable
define internal void @Abc_InfoSetBit(ptr noundef %0, i32 noundef %1) #2 {
  %3 = alloca ptr, align 8
  %4 = alloca i32, align 4
  store ptr %0, ptr %3, align 8, !tbaa !30
  store i32 %1, ptr %4, align 4, !tbaa !10
  %5 = load i32, ptr %4, align 4, !tbaa !10
  %6 = and i32 %5, 31
  %7 = shl i32 1, %6
  %8 = load ptr, ptr %3, align 8, !tbaa !30
  %9 = load i32, ptr %4, align 4, !tbaa !10
  %10 = ashr i32 %9, 5
  %11 = sext i32 %10 to i64
  %12 = getelementptr inbounds i32, ptr %8, i64 %11
  %13 = load i32, ptr %12, align 4, !tbaa !10
  %14 = or i32 %13, %7
  store i32 %14, ptr %12, align 4, !tbaa !10
  ret void
}

; Function Attrs: inlinehint nounwind uwtable
define internal i32 @Abc_BitWordNum(i32 noundef %0) #2 {
  %2 = alloca i32, align 4
  store i32 %0, ptr %2, align 4, !tbaa !10
  %3 = load i32, ptr %2, align 4, !tbaa !10
  %4 = ashr i32 %3, 5
  %5 = load i32, ptr %2, align 4, !tbaa !10
  %6 = and i32 %5, 31
  %7 = icmp sgt i32 %6, 0
  %8 = zext i1 %7 to i32
  %9 = add nsw i32 %4, %8
  ret i32 %9
}

; Function Attrs: inlinehint nounwind uwtable
define internal i32 @Abc_Base2Log(i32 noundef %0) #2 {
  %2 = alloca i32, align 4
  %3 = alloca i32, align 4
  %4 = alloca i32, align 4
  %5 = alloca i32, align 4
  store i32 %0, ptr %3, align 4, !tbaa !10
  call void @llvm.lifetime.start.p0(i64 4, ptr %4) #12
  %6 = load i32, ptr %3, align 4, !tbaa !10
  %7 = icmp ult i32 %6, 2
  br i1 %7, label %8, label %10

8:                                                ; preds = %1
  %9 = load i32, ptr %3, align 4, !tbaa !10
  store i32 %9, ptr %2, align 4
  store i32 1, ptr %5, align 4
  br label %24

10:                                               ; preds = %1
  store i32 0, ptr %4, align 4, !tbaa !10
  %11 = load i32, ptr %3, align 4, !tbaa !10
  %12 = add i32 %11, -1
  store i32 %12, ptr %3, align 4, !tbaa !10
  br label %13

13:                                               ; preds = %17, %10
  %14 = load i32, ptr %3, align 4, !tbaa !10
  %15 = icmp ne i32 %14, 0
  br i1 %15, label %16, label %22

16:                                               ; preds = %13
  br label %17

17:                                               ; preds = %16
  %18 = load i32, ptr %3, align 4, !tbaa !10
  %19 = lshr i32 %18, 1
  store i32 %19, ptr %3, align 4, !tbaa !10
  %20 = load i32, ptr %4, align 4, !tbaa !10
  %21 = add nsw i32 %20, 1
  store i32 %21, ptr %4, align 4, !tbaa !10
  br label %13, !llvm.loop !50

22:                                               ; preds = %13
  %23 = load i32, ptr %4, align 4, !tbaa !10
  store i32 %23, ptr %2, align 4
  store i32 1, ptr %5, align 4
  br label %24

24:                                               ; preds = %22, %8
  call void @llvm.lifetime.end.p0(i64 4, ptr %4) #12
  %25 = load i32, ptr %2, align 4
  ret i32 %25
}

; Function Attrs: nounwind uwtable
define void @Abc_TtStoreLoadSaveBin(ptr noundef %0) #0 {
  %2 = alloca ptr, align 8
  %3 = alloca ptr, align 8
  %4 = alloca ptr, align 8
  %5 = alloca ptr, align 8
  %6 = alloca ptr, align 8
  %7 = alloca ptr, align 8
  %8 = alloca ptr, align 8
  %9 = alloca i32, align 4
  %10 = alloca i32, align 4
  %11 = alloca i32, align 4
  %12 = alloca i32, align 4
  %13 = alloca i32, align 4
  %14 = alloca i32, align 4
  %15 = alloca i32, align 4
  store ptr %0, ptr %2, align 8, !tbaa !8
  call void @llvm.lifetime.start.p0(i64 8, ptr %3) #12
  %16 = call noalias ptr @calloc(i64 noundef 2048, i64 noundef 4) #15
  store ptr %16, ptr %3, align 8, !tbaa !30
  call void @llvm.lifetime.start.p0(i64 8, ptr %4) #12
  %17 = call noalias ptr @calloc(i64 noundef 65536, i64 noundef 1) #15
  store ptr %17, ptr %4, align 8, !tbaa !8
  call void @llvm.lifetime.start.p0(i64 8, ptr %5) #12
  %18 = load ptr, ptr %2, align 8, !tbaa !8
  store ptr %18, ptr %5, align 8, !tbaa !8
  call void @llvm.lifetime.start.p0(i64 8, ptr %6) #12
  %19 = load ptr, ptr %2, align 8, !tbaa !8
  %20 = call ptr @Extra_FileNameGenericAppend(ptr noundef %19, ptr noundef @.str.9)
  store ptr %20, ptr %6, align 8, !tbaa !8
  call void @llvm.lifetime.start.p0(i64 8, ptr %7) #12
  %21 = load ptr, ptr %5, align 8, !tbaa !8
  %22 = call noalias ptr @fopen(ptr noundef %21, ptr noundef @.str)
  store ptr %22, ptr %7, align 8, !tbaa !17
  call void @llvm.lifetime.start.p0(i64 8, ptr %8) #12
  %23 = load ptr, ptr %6, align 8, !tbaa !8
  %24 = call noalias ptr @fopen(ptr noundef %23, ptr noundef @.str.4)
  store ptr %24, ptr %8, align 8, !tbaa !17
  call void @llvm.lifetime.start.p0(i64 4, ptr %9) #12
  call void @llvm.lifetime.start.p0(i64 4, ptr %10) #12
  call void @llvm.lifetime.start.p0(i64 4, ptr %11) #12
  store i32 -1, ptr %11, align 4, !tbaa !10
  %25 = load ptr, ptr %7, align 8, !tbaa !17
  %26 = icmp eq ptr %25, null
  br i1 %26, label %27, label %28

27:                                               ; preds = %1
  store i32 1, ptr %12, align 4
  br label %101

28:                                               ; preds = %1
  br label %29

29:                                               ; preds = %73, %28
  %30 = load ptr, ptr %4, align 8, !tbaa !8
  %31 = load ptr, ptr %7, align 8, !tbaa !17
  %32 = call ptr @fgets(ptr noundef %30, i32 noundef 65536, ptr noundef %31)
  %33 = icmp ne ptr %32, null
  br i1 %33, label %34, label %81

34:                                               ; preds = %29
  call void @llvm.lifetime.start.p0(i64 4, ptr %13) #12
  %35 = load ptr, ptr %4, align 8, !tbaa !8
  %36 = call i64 @strlen(ptr noundef %35) #14
  %37 = sub i64 %36, 1
  %38 = trunc i64 %37 to i32
  store i32 %38, ptr %13, align 4, !tbaa !10
  call void @llvm.lifetime.start.p0(i64 4, ptr %14) #12
  %39 = load i32, ptr %13, align 4, !tbaa !10
  %40 = call i32 @Abc_Base2Log(i32 noundef %39)
  store i32 %40, ptr %14, align 4, !tbaa !10
  call void @llvm.lifetime.start.p0(i64 4, ptr %15) #12
  %41 = load i32, ptr %13, align 4, !tbaa !10
  %42 = call i32 @Abc_BitWordNum(i32 noundef %41)
  store i32 %42, ptr %15, align 4, !tbaa !10
  %43 = load i32, ptr %11, align 4, !tbaa !10
  %44 = icmp eq i32 %43, -1
  br i1 %44, label %45, label %47

45:                                               ; preds = %34
  %46 = load i32, ptr %14, align 4, !tbaa !10
  store i32 %46, ptr %11, align 4, !tbaa !10
  br label %48

47:                                               ; preds = %34
  br label %48

48:                                               ; preds = %47, %45
  %49 = load ptr, ptr %3, align 8, !tbaa !30
  %50 = load i32, ptr %15, align 4, !tbaa !10
  %51 = sext i32 %50 to i64
  %52 = mul i64 4, %51
  call void @llvm.memset.p0.i64(ptr align 4 %49, i8 0, i64 %52, i1 false)
  store i32 0, ptr %9, align 4, !tbaa !10
  br label %53

53:                                               ; preds = %70, %48
  %54 = load i32, ptr %9, align 4, !tbaa !10
  %55 = load i32, ptr %13, align 4, !tbaa !10
  %56 = icmp slt i32 %54, %55
  br i1 %56, label %57, label %73

57:                                               ; preds = %53
  %58 = load ptr, ptr %4, align 8, !tbaa !8
  %59 = load i32, ptr %9, align 4, !tbaa !10
  %60 = sext i32 %59 to i64
  %61 = getelementptr inbounds i8, ptr %58, i64 %60
  %62 = load i8, ptr %61, align 1, !tbaa !12
  %63 = sext i8 %62 to i32
  %64 = icmp eq i32 %63, 49
  br i1 %64, label %65, label %68

65:                                               ; preds = %57
  %66 = load ptr, ptr %3, align 8, !tbaa !30
  %67 = load i32, ptr %9, align 4, !tbaa !10
  call void @Abc_InfoSetBit(ptr noundef %66, i32 noundef %67)
  br label %69

68:                                               ; preds = %57
  br label %69

69:                                               ; preds = %68, %65
  br label %70

70:                                               ; preds = %69
  %71 = load i32, ptr %9, align 4, !tbaa !10
  %72 = add nsw i32 %71, 1
  store i32 %72, ptr %9, align 4, !tbaa !10
  br label %53, !llvm.loop !48

73:                                               ; preds = %53
  %74 = load ptr, ptr %3, align 8, !tbaa !30
  %75 = load i32, ptr %15, align 4, !tbaa !10
  %76 = sext i32 %75 to i64
  %77 = mul i64 4, %76
  %78 = load ptr, ptr %8, align 8, !tbaa !17
  %79 = call i64 @fwrite(ptr noundef %74, i64 noundef 1, i64 noundef %77, ptr noundef %78)
  %80 = trunc i64 %79 to i32
  store i32 %80, ptr %10, align 4, !tbaa !10
  call void @llvm.lifetime.end.p0(i64 4, ptr %15) #12
  call void @llvm.lifetime.end.p0(i64 4, ptr %14) #12
  call void @llvm.lifetime.end.p0(i64 4, ptr %13) #12
  br label %29, !llvm.loop !49

81:                                               ; preds = %29
  %82 = load ptr, ptr %3, align 8, !tbaa !30
  %83 = icmp ne ptr %82, null
  br i1 %83, label %84, label %86

84:                                               ; preds = %81
  %85 = load ptr, ptr %3, align 8, !tbaa !30
  call void @free(ptr noundef %85) #12
  store ptr null, ptr %3, align 8, !tbaa !30
  br label %87

86:                                               ; preds = %81
  br label %87

87:                                               ; preds = %86, %84
  %88 = load ptr, ptr %4, align 8, !tbaa !8
  %89 = icmp ne ptr %88, null
  br i1 %89, label %90, label %92

90:                                               ; preds = %87
  %91 = load ptr, ptr %4, align 8, !tbaa !8
  call void @free(ptr noundef %91) #12
  store ptr null, ptr %4, align 8, !tbaa !8
  br label %93

92:                                               ; preds = %87
  br label %93

93:                                               ; preds = %92, %90
  %94 = load ptr, ptr %7, align 8, !tbaa !17
  %95 = call i32 @fclose(ptr noundef %94)
  %96 = load ptr, ptr %8, align 8, !tbaa !17
  %97 = call i32 @fclose(ptr noundef %96)
  %98 = load ptr, ptr %5, align 8, !tbaa !8
  %99 = load ptr, ptr %6, align 8, !tbaa !8
  %100 = call i32 (ptr, ...) @printf(ptr noundef @.str.10, ptr noundef %98, ptr noundef %99)
  store i32 0, ptr %12, align 4
  br label %101

101:                                              ; preds = %93, %27
  call void @llvm.lifetime.end.p0(i64 4, ptr %11) #12
  call void @llvm.lifetime.end.p0(i64 4, ptr %10) #12
  call void @llvm.lifetime.end.p0(i64 4, ptr %9) #12
  call void @llvm.lifetime.end.p0(i64 8, ptr %8) #12
  call void @llvm.lifetime.end.p0(i64 8, ptr %7) #12
  call void @llvm.lifetime.end.p0(i64 8, ptr %6) #12
  call void @llvm.lifetime.end.p0(i64 8, ptr %5) #12
  call void @llvm.lifetime.end.p0(i64 8, ptr %4) #12
  call void @llvm.lifetime.end.p0(i64 8, ptr %3) #12
  %102 = load i32, ptr %12, align 4
  switch i32 %102, label %104 [
    i32 0, label %103
    i32 1, label %103
  ]

103:                                              ; preds = %101, %101
  ret void

104:                                              ; preds = %101
  unreachable
}