; Function Attrs: nounwind uwtable
define void @Abc_TtStoreLoadSaveBin(ptr noundef %0) local_unnamed_addr #9 {
  %2 = tail call noalias dereferenceable_or_null(8192) ptr @calloc(i64 noundef 2048, i64 noundef 4) #24
  %3 = tail call noalias dereferenceable_or_null(65536) ptr @calloc(i64 noundef 65536, i64 noundef 1) #24
  %4 = tail call ptr @Extra_FileNameGenericAppend(ptr noundef %0, ptr noundef nonnull @.str.9) #21
  %5 = tail call noalias ptr @fopen(ptr noundef %0, ptr noundef nonnull @.str)
  %6 = tail call noalias ptr @fopen(ptr noundef %4, ptr noundef nonnull @.str.4)
  %7 = icmp eq ptr %5, null
  br i1 %7, label %42, label %.preheader

.preheader:                                       ; preds = %1
  %8 = tail call ptr @fgets(ptr noundef %3, i32 noundef 65536, ptr noundef nonnull %5)
  %.not37 = icmp eq ptr %8, null
  br i1 %.not37, label %._crit_edge40, label %.lr.ph39

.lr.ph39:                                         ; preds = %.preheader, %._crit_edge
  %9 = tail call i64 @strlen(ptr noundef nonnull dereferenceable(1) %3) #23
  %10 = trunc i64 %9 to i32
  %11 = add i32 %10, -1
  %12 = ashr i32 %11, 5
  %13 = and i32 %11, 31
  %14 = icmp ne i32 %13, 0
  %15 = zext i1 %14 to i32
  %16 = add nsw i32 %12, %15
  %17 = sext i32 %16 to i64
  %18 = shl nsw i64 %17, 2
  tail call void @llvm.memset.p0.i64(ptr align 4 %2, i8 0, i64 %18, i1 false)
  %19 = icmp sgt i32 %11, 0
  br i1 %19, label %.lr.ph.preheader, label %._crit_edge

.lr.ph.preheader:                                 ; preds = %.lr.ph39
  %wide.trip.count = zext nneg i32 %11 to i64
  br label %.lr.ph

.lr.ph:                                           ; preds = %.lr.ph.preheader, %32
  %indvars.iv = phi i64 [ 0, %.lr.ph.preheader ], [ %indvars.iv.next, %32 ]
  %20 = getelementptr inbounds nuw i8, ptr %3, i64 %indvars.iv
  %21 = load i8, ptr %20, align 1, !tbaa !3
  %22 = icmp eq i8 %21, 49
  br i1 %22, label %23, label %32

23:                                               ; preds = %.lr.ph
  %24 = trunc nuw nsw i64 %indvars.iv to i32
  %25 = and i32 %24, 31
  %26 = shl nuw i32 1, %25
  %27 = lshr i64 %indvars.iv, 5
  %28 = and i64 %27, 134217727
  %29 = getelementptr inbounds nuw i32, ptr %2, i64 %28
  %30 = load i32, ptr %29, align 4, !tbaa !23
  %31 = or i32 %30, %26
  store i32 %31, ptr %29, align 4, !tbaa !23
  br label %32

32:                                               ; preds = %23, %.lr.ph
  %indvars.iv.next = add nuw nsw i64 %indvars.iv, 1
  %exitcond.not = icmp eq i64 %indvars.iv.next, %wide.trip.count
  br i1 %exitcond.not, label %._crit_edge, label %.lr.ph, !llvm.loop !43

._crit_edge:                                      ; preds = %32, %.lr.ph39
  %33 = tail call i64 @fwrite(ptr noundef %2, i64 noundef 1, i64 noundef %18, ptr noundef %6)
  %34 = tail call ptr @fgets(ptr noundef nonnull %3, i32 noundef 65536, ptr noundef nonnull %5)
  %.not = icmp eq ptr %34, null
  br i1 %.not, label %._crit_edge40, label %.lr.ph39, !llvm.loop !44

._crit_edge40:                                    ; preds = %._crit_edge, %.preheader
  %.not34 = icmp eq ptr %2, null
  br i1 %.not34, label %36, label %35

35:                                               ; preds = %._crit_edge40
  tail call void @free(ptr noundef nonnull %2) #21
  br label %36

36:                                               ; preds = %._crit_edge40, %35
  %.not35 = icmp eq ptr %3, null
  br i1 %.not35, label %38, label %37

37:                                               ; preds = %36
  tail call void @free(ptr noundef nonnull %3) #21
  br label %38

38:                                               ; preds = %36, %37
  %39 = tail call i32 @fclose(ptr noundef nonnull %5)
  %40 = tail call i32 @fclose(ptr noundef %6)
  %41 = tail call i32 (ptr, ...) @printf(ptr noundef nonnull dereferenceable(1) @.str.10, ptr noundef %0, ptr noundef %4)
  br label %42

42:                                               ; preds = %1, %38
  ret void
}